; ModuleID = 'source-C-CXX/56/592.c'
source_filename = "source-C-CXX/56/592.c"
target datalayout = "e-m:e-p270:32:32-p271:32:32-p272:64:64-i64:64-f80:128-n8:16:32:64-S128"
target triple = "x86_64-pc-linux-gnu"

@.str = private unnamed_addr constant [3 x i8] c"%d\00", align 1

; Function Attrs: nounwind sspstrong uwtable
define dso_local i32 @main() local_unnamed_addr #0 {
  %1 = alloca [50 x i8], align 16
  %2 = alloca i32, align 4
  %3 = getelementptr inbounds [50 x i8], [50 x i8]* %1, i64 0, i64 0
  call void @llvm.lifetime.start.p0i8(i64 50, i8* nonnull %3) #6
  %4 = bitcast i32* %2 to i8*
  call void @llvm.lifetime.start.p0i8(i64 4, i8* nonnull %4) #6
  %5 = call i32 (i8*, ...) @__isoc99_scanf(i8* getelementptr inbounds ([3 x i8], [3 x i8]* @.str, i64 0, i64 0), i32* nonnull %2)
  %6 = load i32, i32* %2, align 4, !tbaa !5
  %7 = icmp slt i32 %6, 0
  br i1 %7, label %61, label %8

8:                                                ; preds = %0, %57
  %9 = phi i32 [ %59, %57 ], [ 0, %0 ]
  %10 = call i32 (i8*, ...) bitcast (i32 (...)* @gets to i32 (i8*, ...)*)(i8* nonnull %3) #6
  %11 = call i64 @strlen(i8* noundef nonnull %3) #7
  %12 = trunc i64 %11 to i32
  %13 = shl i64 %11, 32
  %14 = add i64 %13, -4294967296
  %15 = ashr exact i64 %14, 32
  %16 = getelementptr inbounds [50 x i8], [50 x i8]* %1, i64 0, i64 %15
  %17 = load i8, i8* %16, align 1, !tbaa !9
  switch i8 %17, label %33 [
    i8 121, label %18
    i8 114, label %18
  ]

18:                                               ; preds = %8, %8
  %19 = icmp sgt i32 %12, 2
  br i1 %19, label %20, label %49

20:                                               ; preds = %18
  %21 = add i64 %11, 4294967294
  %22 = and i64 %21, 4294967295
  br label %23

23:                                               ; preds = %20, %23
  %24 = phi i64 [ 0, %20 ], [ %29, %23 ]
  %25 = getelementptr inbounds [50 x i8], [50 x i8]* %1, i64 0, i64 %24
  %26 = load i8, i8* %25, align 1, !tbaa !9
  %27 = sext i8 %26 to i32
  %28 = call i32 @putchar(i32 %27)
  %29 = add nuw nsw i64 %24, 1
  %30 = icmp eq i64 %29, %22
  br i1 %30, label %31, label %23, !llvm.loop !10

31:                                               ; preds = %23
  %32 = load i8, i8* %16, align 1, !tbaa !9
  br label %33

33:                                               ; preds = %31, %8
  %34 = phi i8 [ %32, %31 ], [ %17, %8 ]
  %35 = icmp eq i8 %34, 103
  %36 = icmp sgt i32 %12, 3
  %37 = select i1 %35, i1 %36, i1 false
  br i1 %37, label %38, label %49

38:                                               ; preds = %33
  %39 = add i64 %11, 4294967293
  %40 = and i64 %39, 4294967295
  br label %41

41:                                               ; preds = %38, %41
  %42 = phi i64 [ 0, %38 ], [ %47, %41 ]
  %43 = getelementptr inbounds [50 x i8], [50 x i8]* %1, i64 0, i64 %42
  %44 = load i8, i8* %43, align 1, !tbaa !9
  %45 = sext i8 %44 to i32
  %46 = call i32 @putchar(i32 %45)
  %47 = add nuw nsw i64 %42, 1
  %48 = icmp eq i64 %47, %40
  br i1 %48, label %49, label %41, !llvm.loop !12

49:                                               ; preds = %41, %18, %33
  %50 = icmp eq i32 %9, 0
  %51 = load i32, i32* %2, align 4
  %52 = icmp eq i32 %9, %51
  %53 = select i1 %50, i1 true, i1 %52
  br i1 %53, label %57, label %54

54:                                               ; preds = %49
  %55 = call i32 @putchar(i32 10)
  %56 = load i32, i32* %2, align 4, !tbaa !5
  br label %57

57:                                               ; preds = %49, %54
  %58 = phi i32 [ %51, %49 ], [ %56, %54 ]
  %59 = add nuw nsw i32 %9, 1
  %60 = icmp slt i32 %9, %58
  br i1 %60, label %8, label %61, !llvm.loop !13

61:                                               ; preds = %57, %0
  call void @llvm.lifetime.end.p0i8(i64 4, i8* nonnull %4) #6
  call void @llvm.lifetime.end.p0i8(i64 50, i8* nonnull %3) #6
  ret i32 0
}

; Function Attrs: argmemonly mustprogress nofree nosync nounwind willreturn
declare void @llvm.lifetime.start.p0i8(i64 immarg, i8* nocapture) #1

; Function Attrs: nofree nounwind
declare noundef i32 @__isoc99_scanf(i8* nocapture noundef readonly, ...) local_unnamed_addr #2

declare i32 @gets(...) local_unnamed_addr #3

; Function Attrs: argmemonly mustprogress nofree nounwind readonly willreturn
declare i64 @strlen(i8* nocapture) local_unnamed_addr #4

; Function Attrs: argmemonly mustprogress nofree nosync nounwind willreturn
declare void @llvm.lifetime.end.p0i8(i64 immarg, i8* nocapture) #1

; Function Attrs: nofree nounwind
declare noundef i32 @putchar(i32 noundef) local_unnamed_addr #5


!llvm.module.flags = !{!0, !1, !2, !3}
!llvm.ident = !{!4}

!0 = !{i32 1, !"wchar_size", i32 4}
!1 = !{i32 7, !"PIC Level", i32 2}
!2 = !{i32 7, !"PIE Level", i32 2}
!3 = !{i32 7, !"uwtable", i32 1}
!4 = !{!"clang version 13.0.0"}
!5 = !{!6, !6, i64 0}
!6 = !{!"int", !7, i64 0}
!7 = !{!"omnipotent char", !8, i64 0}
!8 = !{!"Simple C/C++ TBAA"}
!9 = !{!7, !7, i64 0}
!10 = distinct !{!10, !11}
!11 = !{!"llvm.loop.mustprogress"}
!12 = distinct !{!12, !11}
!13 = distinct !{!13, !11}
